target datalayout = "e-m:e-p270:32:32-p271:32:32-p272:64:64-i64:64-i128:128-f80:128-n8:16:32:64-S128"
target triple = "x86_64-unknown-linux-gnu"

%struct.UText = type { i32, i32, i32, i32, i64, i32, i32, i64, i32, i32, ptr, ptr, ptr, ptr, ptr, ptr, ptr, ptr, i64, i32, i32, i64, i32, i32 }

; Function Attrs: mustprogress nounwind uwtable
define internal noundef i64 @_ZL14utf8TextLengthP5UText(ptr noundef %ut) #1 {
entry:
  %ut.addr = alloca ptr, align 8
  %r = alloca ptr, align 8
  store ptr %ut, ptr %ut.addr, align 8
  %0 = load ptr, ptr %ut.addr, align 8
  %b = getelementptr inbounds %struct.UText, ptr %0, i32 0, i32 19
  %1 = load i32, ptr %b, align 8
  %cmp = icmp slt i32 %1, 0
  br i1 %cmp, label %if.then, label %if.end12

if.then:                                          ; preds = %entry
  %2 = load ptr, ptr %ut.addr, align 8
  %context = getelementptr inbounds %struct.UText, ptr %2, i32 0, i32 13
  %3 = load ptr, ptr %context, align 8
  %4 = load ptr, ptr %ut.addr, align 8
  %c = getelementptr inbounds %struct.UText, ptr %4, i32 0, i32 20
  %5 = load i32, ptr %c, align 4
  %idx.ext = sext i32 %5 to i64
  %add.ptr = getelementptr inbounds i8, ptr %3, i64 %idx.ext
  store ptr %add.ptr, ptr %r, align 8
  br label %while.cond

while.cond:                                       ; preds = %while.body, %if.then
  %6 = load ptr, ptr %r, align 8
  %7 = load i8, ptr %6, align 1
  %conv = sext i8 %7 to i32
  %cmp1 = icmp ne i32 %conv, 0
  br i1 %cmp1, label %while.body, label %while.end

while.body:                                       ; preds = %while.cond
  %8 = load ptr, ptr %r, align 8
  %incdec.ptr = getelementptr inbounds i8, ptr %8, i32 1
  store ptr %incdec.ptr, ptr %r, align 8
  br label %while.cond, !llvm.loop !7

while.end:                                        ; preds = %while.cond
  %9 = load ptr, ptr %r, align 8
  %10 = load ptr, ptr %ut.addr, align 8
  %context2 = getelementptr inbounds %struct.UText, ptr %10, i32 0, i32 13
  %11 = load ptr, ptr %context2, align 8
  %sub.ptr.lhs.cast = ptrtoint ptr %9 to i64
  %sub.ptr.rhs.cast = ptrtoint ptr %11 to i64
  %sub.ptr.sub = sub i64 %sub.ptr.lhs.cast, %sub.ptr.rhs.cast
  %cmp3 = icmp slt i64 %sub.ptr.sub, 2147483647
  br i1 %cmp3, label %if.then4, label %if.else

if.then4:                                         ; preds = %while.end
  %12 = load ptr, ptr %r, align 8
  %13 = load ptr, ptr %ut.addr, align 8
  %context5 = getelementptr inbounds %struct.UText, ptr %13, i32 0, i32 13
  %14 = load ptr, ptr %context5, align 8
  %sub.ptr.lhs.cast6 = ptrtoint ptr %12 to i64
  %sub.ptr.rhs.cast7 = ptrtoint ptr %14 to i64
  %sub.ptr.sub8 = sub i64 %sub.ptr.lhs.cast6, %sub.ptr.rhs.cast7
  %conv9 = trunc i64 %sub.ptr.sub8 to i32
  %15 = load ptr, ptr %ut.addr, align 8
  %b10 = getelementptr inbounds %struct.UText, ptr %15, i32 0, i32 19
  store i32 %conv9, ptr %b10, align 8
  br label %if.end

if.else:                                          ; preds = %while.end
  %16 = load ptr, ptr %ut.addr, align 8
  %b11 = getelementptr inbounds %struct.UText, ptr %16, i32 0, i32 19
  store i32 2147483647, ptr %b11, align 8
  br label %if.end

if.end:                                           ; preds = %if.else, %if.then4
  %17 = load ptr, ptr %ut.addr, align 8
  %providerProperties = getelementptr inbounds %struct.UText, ptr %17, i32 0, i32 2
  %18 = load i32, ptr %providerProperties, align 8
  %and = and i32 %18, -3
  store i32 %and, ptr %providerProperties, align 8
  br label %if.end12

if.end12:                                         ; preds = %if.end, %entry
  %19 = load ptr, ptr %ut.addr, align 8
  %b13 = getelementptr inbounds %struct.UText, ptr %19, i32 0, i32 19
  %20 = load i32, ptr %b13, align 8
  %conv14 = sext i32 %20 to i64
  ret i64 %conv14
}