; Function Attrs: mustprogress nofree norecurse nosync nounwind memory(read, argmem: readwrite, inaccessiblemem: none) uwtable
define internal noundef i64 @_ZL14utf8TextLengthP5UText(ptr nocapture noundef %ut) #7 {
entry:
  %b = getelementptr inbounds i8, ptr %ut, i64 120
  %0 = load i32, ptr %b, align 8
  %cmp = icmp slt i32 %0, 0
  br i1 %cmp, label %if.then, label %if.end12

if.then:                                          ; preds = %entry
  %context = getelementptr inbounds i8, ptr %ut, i64 72
  %1 = load ptr, ptr %context, align 8
  %c = getelementptr inbounds i8, ptr %ut, i64 124
  %2 = load i32, ptr %c, align 4
  %idx.ext = sext i32 %2 to i64
  %add.ptr = getelementptr inbounds i8, ptr %1, i64 %idx.ext
  br label %while.cond

while.cond:                                       ; preds = %while.cond, %if.then
  %r.0 = phi ptr [ %add.ptr, %if.then ], [ %incdec.ptr, %while.cond ]
  %3 = load i8, ptr %r.0, align 1
  %cmp1.not = icmp eq i8 %3, 0
  %incdec.ptr = getelementptr inbounds i8, ptr %r.0, i64 1
  br i1 %cmp1.not, label %while.end, label %while.cond, !llvm.loop !7

while.end:                                        ; preds = %while.cond
  %sub.ptr.lhs.cast = ptrtoint ptr %r.0 to i64
  %sub.ptr.rhs.cast = ptrtoint ptr %1 to i64
  %sub.ptr.sub = sub i64 %sub.ptr.lhs.cast, %sub.ptr.rhs.cast
  %storemerge12 = tail call i64 @llvm.smin.i64(i64 %sub.ptr.sub, i64 2147483647)
  %storemerge = trunc i64 %storemerge12 to i32
  store i32 %storemerge, ptr %b, align 8
  %providerProperties = getelementptr inbounds i8, ptr %ut, i64 8
  %4 = load i32, ptr %providerProperties, align 8
  %and = and i32 %4, -3
  store i32 %and, ptr %providerProperties, align 8
  br label %if.end12

if.end12:                                         ; preds = %while.end, %entry
  %5 = phi i32 [ %storemerge, %while.end ], [ %0, %entry ]
  %conv14 = sext i32 %5 to i64
  ret i64 %conv14
}